; Function Attrs: mustprogress uwtable
define void @_ZNK5faiss19MaskedInvertedLists13release_codesEmPKh(ptr noundef nonnull readonly align 8 captures(none) dereferenceable(48) %0, i64 noundef %1, ptr noundef %2) unnamed_addr #2 align 2 {
  %4 = getelementptr inbounds nuw i8, ptr %0, i64 32
  %5 = load ptr, ptr %4, align 8, !tbaa !76
  %6 = load ptr, ptr %5, align 8, !tbaa !4
  %7 = getelementptr inbounds nuw i8, ptr %6, i64 16
  %8 = load ptr, ptr %7, align 8
  %9 = tail call noundef i64 %8(ptr noundef nonnull align 8 dereferenceable(25) %5, i64 noundef %1)
  %.not = icmp eq i64 %9, 0
  %10 = getelementptr inbounds nuw i8, ptr %0, i64 40
  %.val = load ptr, ptr %10, align 8
  %.val4 = load ptr, ptr %4, align 8
  %11 = select i1 %.not, ptr %.val, ptr %.val4
  %12 = load ptr, ptr %11, align 8, !tbaa !4
  %13 = getelementptr inbounds nuw i8, ptr %12, i64 40
  %14 = load ptr, ptr %13, align 8
  tail call void %14(ptr noundef nonnull align 8 dereferenceable(25) %11, i64 noundef %1, ptr noundef %2)
  ret void
}